target datalayout = "e-m:e-p270:32:32-p271:32:32-p272:64:64-i64:64-i128:128-f80:128-n8:16:32:64-S128"
target triple = "x86_64-pc-linux-gnu"

%struct.strvec = type { ptr, i64, i64 }

@empty_strvec = dso_local global [1 x ptr] zeroinitializer, align 8
@__const.strvec_init.blank = private unnamed_addr constant %struct.strvec { ptr @empty_strvec, i64 0, i64 0 }, align 8

; Function Attrs: nounwind uwtable
define dso_local void @strvec_init(ptr noundef %0) #0 {
  %2 = alloca ptr, align 8
  %3 = alloca %struct.strvec, align 8
  store ptr %0, ptr %2, align 8, !tbaa !4
  call void @llvm.lifetime.start.p0(i64 24, ptr %3) #8
  call void @llvm.memcpy.p0.p0.i64(ptr align 8 %3, ptr align 8 @__const.strvec_init.blank, i64 24, i1 false)
  %4 = load ptr, ptr %2, align 8, !tbaa !4
  call void @llvm.memcpy.p0.p0.i64(ptr align 8 %4, ptr align 8 %3, i64 24, i1 false)
  call void @llvm.lifetime.end.p0(i64 24, ptr %3) #8
  ret void
}

; Function Attrs: nounwind uwtable
define dso_local ptr @strvec_detach(ptr noundef %0) #0 {
  %2 = alloca ptr, align 8
  %3 = alloca ptr, align 8
  %4 = alloca ptr, align 8
  store ptr %0, ptr %3, align 8, !tbaa !4
  %5 = load ptr, ptr %3, align 8, !tbaa !4
  %6 = getelementptr inbounds nuw %struct.strvec, ptr %5, i32 0, i32 0
  %7 = load ptr, ptr %6, align 8, !tbaa !11
  %8 = icmp eq ptr %7, @empty_strvec
  br i1 %8, label %9, label %11

9:                                                ; preds = %1
  %10 = call ptr @xcalloc(i64 noundef 1, i64 noundef 8)
  store ptr %10, ptr %2, align 8
  br label %17

11:                                               ; preds = %1
  call void @llvm.lifetime.start.p0(i64 8, ptr %4) #8
  %12 = load ptr, ptr %3, align 8, !tbaa !4
  %13 = getelementptr inbounds nuw %struct.strvec, ptr %12, i32 0, i32 0
  %14 = load ptr, ptr %13, align 8, !tbaa !11
  store ptr %14, ptr %4, align 8, !tbaa !20
  %15 = load ptr, ptr %3, align 8, !tbaa !4
  call void @strvec_init(ptr noundef %15)
  %16 = load ptr, ptr %4, align 8, !tbaa !20
  store ptr %16, ptr %2, align 8
  call void @llvm.lifetime.end.p0(i64 8, ptr %4) #8
  br label %17

17:                                               ; preds = %11, %9
  %18 = load ptr, ptr %2, align 8
  ret ptr %18
}