; Function Attrs: nounwind uwtable
define dso_local ptr @strvec_detach(ptr noundef captures(none) %0) local_unnamed_addr #3 {
  %2 = load ptr, ptr %0, align 8, !tbaa !4
  %3 = icmp eq ptr %2, @empty_strvec
  br i1 %3, label %4, label %6

4:                                                ; preds = %1
  %5 = tail call ptr @xcalloc(i64 noundef 1, i64 noundef 8) #11
  br label %7

6:                                                ; preds = %1
  tail call void @llvm.memcpy.p0.p0.i64(ptr noundef nonnull align 8 dereferenceable(24) %0, ptr noundef nonnull align 8 dereferenceable(24) @__const.strvec_init.blank, i64 24, i1 false)
  br label %7

7:                                                ; preds = %6, %4
  %.0 = phi ptr [ %5, %4 ], [ %2, %6 ]
  ret ptr %.0
}